; Function Attrs: nounwind uwtable
define ptr @l___private_Std_Tactic_BVDecide_LRAT_Internal_Formula_RupAddSound_0__Std_Tactic_BVDecide_LRAT_Internal_DefaultFormula_confirmRupHint_match__1_splitter___rarg(ptr noundef %0, ptr noundef %1, ptr noundef %2, ptr noundef %3, ptr noundef %4) local_unnamed_addr #0 {
  %6 = ptrtoint ptr %0 to i64
  %7 = and i64 %6, 1
  %.not.i40 = icmp eq i64 %7, 0
  br i1 %.not.i40, label %11, label %8

8:                                                ; preds = %5
  %9 = lshr i64 %6, 1
  %10 = trunc i64 %9 to i32
  br label %lean_obj_tag.exit

11:                                               ; preds = %5
  %12 = getelementptr i8, ptr %0, i64 4
  %.val.i = load i32, ptr %12, align 4
  %13 = lshr i32 %.val.i, 24
  br label %lean_obj_tag.exit

lean_obj_tag.exit:                                ; preds = %8, %11
  %.0.i = phi i32 [ %10, %8 ], [ %13, %11 ]
  switch i32 %.0.i, label %96 [
    i32 0, label %14
    i32 1, label %32
    i32 2, label %50
  ]

14:                                               ; preds = %lean_obj_tag.exit
  %15 = ptrtoint ptr %3 to i64
  %16 = and i64 %15, 1
  %.not63 = icmp eq i64 %16, 0
  br i1 %.not63, label %17, label %lean_dec.exit31

17:                                               ; preds = %14
  %18 = load i32, ptr %3, align 4, !tbaa !4
  %19 = icmp sgt i32 %18, 1
  br i1 %19, label %20, label %22, !prof !9

20:                                               ; preds = %17
  %21 = add nsw i32 %18, -1
  store i32 %21, ptr %3, align 4, !tbaa !4
  br label %lean_dec.exit31

22:                                               ; preds = %17
  %.not.i = icmp eq i32 %18, 0
  br i1 %.not.i, label %lean_dec.exit31, label %23

23:                                               ; preds = %22
  tail call void @lean_dec_ref_cold(ptr noundef nonnull %3) #3
  br label %lean_dec.exit31

lean_dec.exit31:                                  ; preds = %23, %22, %20, %14
  %24 = ptrtoint ptr %1 to i64
  %25 = and i64 %24, 1
  %.not64 = icmp eq i64 %25, 0
  br i1 %.not64, label %26, label %lean_inc.exit27

26:                                               ; preds = %lean_dec.exit31
  %.val.i41 = load i32, ptr %1, align 4, !tbaa !4
  %27 = icmp sgt i32 %.val.i41, 0
  br i1 %27, label %28, label %30, !prof !9

28:                                               ; preds = %26
  %29 = add nuw i32 %.val.i41, 1
  store i32 %29, ptr %1, align 4, !tbaa !4
  br label %lean_inc.exit27

30:                                               ; preds = %26
  %.not.i42 = icmp eq i32 %.val.i41, 0
  br i1 %.not.i42, label %lean_inc.exit27, label %31

31:                                               ; preds = %30
  tail call void @lean_inc_ref_cold(ptr noundef nonnull %1) #3
  br label %lean_inc.exit27

32:                                               ; preds = %lean_obj_tag.exit
  %33 = ptrtoint ptr %3 to i64
  %34 = and i64 %33, 1
  %.not61 = icmp eq i64 %34, 0
  br i1 %.not61, label %35, label %lean_dec.exit30

35:                                               ; preds = %32
  %36 = load i32, ptr %3, align 4, !tbaa !4
  %37 = icmp sgt i32 %36, 1
  br i1 %37, label %38, label %40, !prof !9

38:                                               ; preds = %35
  %39 = add nsw i32 %36, -1
  store i32 %39, ptr %3, align 4, !tbaa !4
  br label %lean_dec.exit30

40:                                               ; preds = %35
  %.not.i32 = icmp eq i32 %36, 0
  br i1 %.not.i32, label %lean_dec.exit30, label %41

41:                                               ; preds = %40
  tail call void @lean_dec_ref_cold(ptr noundef nonnull %3) #3
  br label %lean_dec.exit30

lean_dec.exit30:                                  ; preds = %41, %40, %38, %32
  %42 = ptrtoint ptr %2 to i64
  %43 = and i64 %42, 1
  %.not62 = icmp eq i64 %43, 0
  br i1 %.not62, label %44, label %lean_inc.exit27

44:                                               ; preds = %lean_dec.exit30
  %.val.i43 = load i32, ptr %2, align 4, !tbaa !4
  %45 = icmp sgt i32 %.val.i43, 0
  br i1 %45, label %46, label %48, !prof !9

46:                                               ; preds = %44
  %47 = add nuw i32 %.val.i43, 1
  store i32 %47, ptr %2, align 4, !tbaa !4
  br label %lean_inc.exit27

48:                                               ; preds = %44
  %.not.i44 = icmp eq i32 %.val.i43, 0
  br i1 %.not.i44, label %lean_inc.exit27, label %49

49:                                               ; preds = %48
  tail call void @lean_inc_ref_cold(ptr noundef nonnull %2) #3
  br label %lean_inc.exit27

50:                                               ; preds = %lean_obj_tag.exit
  %51 = getelementptr inbounds nuw i8, ptr %0, i64 8
  %52 = load ptr, ptr %51, align 8, !tbaa !10
  %53 = ptrtoint ptr %52 to i64
  %54 = and i64 %53, 1
  %.not = icmp eq i64 %54, 0
  br i1 %.not, label %55, label %lean_inc.exit25

55:                                               ; preds = %50
  %.val.i46 = load i32, ptr %52, align 4, !tbaa !4
  %56 = icmp sgt i32 %.val.i46, 0
  br i1 %56, label %57, label %59, !prof !9

57:                                               ; preds = %55
  %58 = add nuw i32 %.val.i46, 1
  store i32 %58, ptr %52, align 4, !tbaa !4
  br label %lean_inc.exit25

59:                                               ; preds = %55
  %.not.i47 = icmp eq i32 %.val.i46, 0
  br i1 %.not.i47, label %lean_inc.exit25, label %60

60:                                               ; preds = %59
  tail call void @lean_inc_ref_cold(ptr noundef nonnull %52) #3
  br label %lean_inc.exit25

lean_inc.exit25:                                  ; preds = %60, %59, %57, %50
  br i1 %.not.i40, label %61, label %lean_dec.exit29

61:                                               ; preds = %lean_inc.exit25
  %62 = load i32, ptr %0, align 4, !tbaa !4
  %63 = icmp sgt i32 %62, 1
  br i1 %63, label %64, label %66, !prof !9

64:                                               ; preds = %61
  %65 = add nsw i32 %62, -1
  store i32 %65, ptr %0, align 4, !tbaa !4
  br label %lean_dec.exit29

66:                                               ; preds = %61
  %.not.i34 = icmp eq i32 %62, 0
  br i1 %.not.i34, label %lean_dec.exit29, label %67

67:                                               ; preds = %66
  tail call void @lean_dec_ref_cold(ptr noundef nonnull %0) #3
  br label %lean_dec.exit29

lean_dec.exit29:                                  ; preds = %67, %66, %64, %lean_inc.exit25
  %68 = getelementptr inbounds nuw i8, ptr %52, i64 8
  %69 = load ptr, ptr %68, align 8, !tbaa !10
  %70 = ptrtoint ptr %69 to i64
  %71 = and i64 %70, 1
  %.not59 = icmp eq i64 %71, 0
  br i1 %.not59, label %72, label %lean_inc.exit24

72:                                               ; preds = %lean_dec.exit29
  %.val.i49 = load i32, ptr %69, align 4, !tbaa !4
  %73 = icmp sgt i32 %.val.i49, 0
  br i1 %73, label %74, label %76, !prof !9

74:                                               ; preds = %72
  %75 = add nuw i32 %.val.i49, 1
  store i32 %75, ptr %69, align 4, !tbaa !4
  br label %lean_inc.exit24

76:                                               ; preds = %72
  %.not.i50 = icmp eq i32 %.val.i49, 0
  br i1 %.not.i50, label %lean_inc.exit24, label %77

77:                                               ; preds = %76
  tail call void @lean_inc_ref_cold(ptr noundef nonnull %69) #3
  br label %lean_inc.exit24

lean_inc.exit24:                                  ; preds = %77, %76, %74, %lean_dec.exit29
  %78 = getelementptr inbounds nuw i8, ptr %52, i64 16
  %79 = load ptr, ptr %78, align 8, !tbaa !10
  %80 = ptrtoint ptr %79 to i64
  %81 = and i64 %80, 1
  %.not60 = icmp eq i64 %81, 0
  br i1 %.not60, label %82, label %lean_inc.exit23

82:                                               ; preds = %lean_inc.exit24
  %.val.i52 = load i32, ptr %79, align 4, !tbaa !4
  %83 = icmp sgt i32 %.val.i52, 0
  br i1 %83, label %84, label %86, !prof !9

84:                                               ; preds = %82
  %85 = add nuw i32 %.val.i52, 1
  store i32 %85, ptr %79, align 4, !tbaa !4
  br label %lean_inc.exit23

86:                                               ; preds = %82
  %.not.i53 = icmp eq i32 %.val.i52, 0
  br i1 %.not.i53, label %lean_inc.exit23, label %87

87:                                               ; preds = %86
  tail call void @lean_inc_ref_cold(ptr noundef nonnull %79) #3
  br label %lean_inc.exit23

lean_inc.exit23:                                  ; preds = %87, %86, %84, %lean_inc.exit24
  br i1 %.not, label %88, label %lean_dec.exit28

88:                                               ; preds = %lean_inc.exit23
  %89 = load i32, ptr %52, align 4, !tbaa !4
  %90 = icmp sgt i32 %89, 1
  br i1 %90, label %91, label %93, !prof !9

91:                                               ; preds = %88
  %92 = add nsw i32 %89, -1
  store i32 %92, ptr %52, align 4, !tbaa !4
  br label %lean_dec.exit28

93:                                               ; preds = %88
  %.not.i36 = icmp eq i32 %89, 0
  br i1 %.not.i36, label %lean_dec.exit28, label %94

94:                                               ; preds = %93
  tail call void @lean_dec_ref_cold(ptr noundef nonnull %52) #3
  br label %lean_dec.exit28

lean_dec.exit28:                                  ; preds = %94, %93, %91, %lean_inc.exit23
  %95 = tail call ptr @lean_apply_2(ptr noundef %3, ptr noundef %69, ptr noundef %79) #3
  br label %lean_inc.exit27

96:                                               ; preds = %lean_obj_tag.exit
  %97 = ptrtoint ptr %3 to i64
  %98 = and i64 %97, 1
  %.not65 = icmp eq i64 %98, 0
  br i1 %.not65, label %99, label %lean_dec.exit

99:                                               ; preds = %96
  %100 = load i32, ptr %3, align 4, !tbaa !4
  %101 = icmp sgt i32 %100, 1
  br i1 %101, label %102, label %104, !prof !9

102:                                              ; preds = %99
  %103 = add nsw i32 %100, -1
  store i32 %103, ptr %3, align 4, !tbaa !4
  br label %lean_dec.exit

104:                                              ; preds = %99
  %.not.i38 = icmp eq i32 %100, 0
  br i1 %.not.i38, label %lean_dec.exit, label %105

105:                                              ; preds = %104
  tail call void @lean_dec_ref_cold(ptr noundef nonnull %3) #3
  br label %lean_dec.exit

lean_dec.exit:                                    ; preds = %105, %104, %102, %96
  %106 = ptrtoint ptr %4 to i64
  %107 = and i64 %106, 1
  %.not66 = icmp eq i64 %107, 0
  br i1 %.not66, label %108, label %lean_inc.exit27

108:                                              ; preds = %lean_dec.exit
  %.val.i55 = load i32, ptr %4, align 4, !tbaa !4
  %109 = icmp sgt i32 %.val.i55, 0
  br i1 %109, label %110, label %112, !prof !9

110:                                              ; preds = %108
  %111 = add nuw i32 %.val.i55, 1
  store i32 %111, ptr %4, align 4, !tbaa !4
  br label %lean_inc.exit27

112:                                              ; preds = %108
  %.not.i56 = icmp eq i32 %.val.i55, 0
  br i1 %.not.i56, label %lean_inc.exit27, label %113

113:                                              ; preds = %112
  tail call void @lean_inc_ref_cold(ptr noundef nonnull %4) #3
  br label %lean_inc.exit27

lean_inc.exit27:                                  ; preds = %lean_dec.exit, %110, %112, %113, %lean_dec.exit30, %46, %48, %49, %lean_dec.exit31, %28, %30, %31, %lean_dec.exit28
  %.0 = phi ptr [ %95, %lean_dec.exit28 ], [ %1, %31 ], [ %1, %30 ], [ %1, %28 ], [ %1, %lean_dec.exit31 ], [ %2, %49 ], [ %2, %48 ], [ %2, %46 ], [ %2, %lean_dec.exit30 ], [ %4, %113 ], [ %4, %112 ], [ %4, %110 ], [ %4, %lean_dec.exit ]
  ret ptr %.0
}